target datalayout = "e-m:e-p270:32:32-p271:32:32-p272:64:64-i64:64-i128:128-f80:128-n8:16:32:64-S128"
target triple = "x86_64-pc-linux-gnu"

%"class.os::PageSizes" = type { i64 }
%class.LogTagSet = type { ptr, i64, [5 x i32], [4 x i8], %class.LogOutputList, %class.LogDecorators, ptr }
%class.LogOutputList = type <{ [6 x ptr], i32, [4 x i8] }>
%class.LogDecorators = type { i32 }
%class.ExplicitHugePageSupport = type <{ i8, [7 x i8], %"class.os::PageSizes", i64, i8, [7 x i8] }>

@_ZN16LogTagSetMappingILN6LogTag4typeE108ELS1_0ELS1_0ELS1_0ELS1_0ELS1_0EE7_tagsetE = linkonce_odr hidden global %class.LogTagSet zeroinitializer, comdat, align 8
@_ZN6OSInfo13_vm_page_sizeE = external global i64, align 8
@_ZN9HugePages26_explicit_hugepage_supportE = external global %class.ExplicitHugePageSupport, align 8
@.str.343 = private unnamed_addr constant [2 x i8] c"G\00", align 1
@.str.344 = private unnamed_addr constant [2 x i8] c"M\00", align 1
@.str.345 = private unnamed_addr constant [2 x i8] c"K\00", align 1
@.str.346 = private unnamed_addr constant [2 x i8] c"B\00", align 1
@.str.358 = private unnamed_addr constant [62 x i8] c"Commit special mapping: 0x%016lx, size=%lu%s, page size=%lu%s\00", align 1
@.str.359 = private unnamed_addr constant [121 x i8] c"Failed to reserve and commit memory with given page size. req_addr: 0x%016lx size: %lu%s, page size: %lu%s, (errno = %d)\00", align 1

; Function Attrs: mustprogress nounwind uwtable
define linkonce_odr hidden noundef i32 @_Z23count_trailing_zeros_64m(i64 noundef %0) #1 comdat {
  %2 = alloca i64, align 8
  store i64 %0, ptr %2, align 8
  %3 = load i64, ptr %2, align 8
  %4 = call i64 @llvm.cttz.i64(i64 %3, i1 true)
  %5 = trunc i64 %4 to i32
  ret i32 %5
}

; Function Attrs: mustprogress nounwind uwtable
define linkonce_odr hidden noundef i32 @_Z20count_trailing_zerosImTnNSt9enable_ifIXcvbsr3std11is_integralIT_EE5valueEiE4typeELi0ETnNS0_IXcvblestS1_Lm8EEiE4typeELi0EEjS1_(i64 noundef %0) #1 comdat {
  %2 = alloca i64, align 8
  store i64 %0, ptr %2, align 8
  %3 = load i64, ptr %2, align 8
  %4 = call noundef i32 @_Z23count_trailing_zeros_64m(i64 noundef %3)
  ret i32 %4
}

; Function Attrs: mustprogress nounwind uwtable
define linkonce_odr hidden noundef zeroext i1 @_ZNK13LogOutputList8is_levelEN8LogLevel4typeE(ptr noundef nonnull align 8 dereferenceable(52) %0, i32 noundef %1) #1 comdat align 2 {
  %3 = alloca ptr, align 8
  %4 = alloca i32, align 4
  store ptr %0, ptr %3, align 8
  store i32 %1, ptr %4, align 4
  %5 = load ptr, ptr %3, align 8
  %6 = getelementptr inbounds %class.LogOutputList, ptr %5, i32 0, i32 0
  %7 = load i32, ptr %4, align 4
  %8 = zext i32 %7 to i64
  %9 = getelementptr inbounds [6 x ptr], ptr %6, i64 0, i64 %8
  %10 = load volatile ptr, ptr %9, align 8
  %11 = icmp ne ptr %10, null
  ret i1 %11
}

; Function Attrs: mustprogress nounwind uwtable
define linkonce_odr hidden noundef i32 @_Z11log2i_exactImTnNSt9enable_ifIXcvbsr3std11is_integralIT_EE5valueEiE4typeELi0EEiS1_(i64 noundef %0) #1 comdat {
  %2 = alloca i64, align 8
  store i64 %0, ptr %2, align 8
  %3 = load i64, ptr %2, align 8
  %4 = call noundef i32 @_Z20count_trailing_zerosImTnNSt9enable_ifIXcvbsr3std11is_integralIT_EE5valueEiE4typeELi0ETnNS0_IXcvblestS1_Lm8EEiE4typeELi0EEjS1_(i64 noundef %3)
  ret i32 %4
}

; Function Attrs: mustprogress nounwind uwtable
define linkonce_odr hidden noundef zeroext i1 @_ZNK9LogTagSet8is_levelEN8LogLevel4typeE(ptr noundef nonnull align 8 dereferenceable(112) %0, i32 noundef %1) #1 comdat align 2 {
  %3 = alloca ptr, align 8
  %4 = alloca i32, align 4
  store ptr %0, ptr %3, align 8
  store i32 %1, ptr %4, align 4
  %5 = load ptr, ptr %3, align 8
  %6 = getelementptr inbounds %class.LogTagSet, ptr %5, i32 0, i32 4
  %7 = load i32, ptr %4, align 4
  %8 = call noundef zeroext i1 @_ZNK13LogOutputList8is_levelEN8LogLevel4typeE(ptr noundef nonnull align 8 dereferenceable(52) %6, i32 noundef %7)
  ret i1 %8
}

; Function Attrs: mustprogress nounwind uwtable
define linkonce_odr hidden noundef nonnull align 8 dereferenceable(112) ptr @_ZN16LogTagSetMappingILN6LogTag4typeE108ELS1_0ELS1_0ELS1_0ELS1_0ELS1_0EE6tagsetEv() #1 comdat align 2 {
  ret ptr @_ZN16LogTagSetMappingILN6LogTag4typeE108ELS1_0ELS1_0ELS1_0ELS1_0ELS1_0EE7_tagsetE
}

; Function Attrs: mustprogress nounwind uwtable
define linkonce_odr hidden noundef i32 @_Z10exact_log2l(i64 noundef %0) #1 comdat {
  %2 = alloca i64, align 8
  store i64 %0, ptr %2, align 8
  %3 = load i64, ptr %2, align 8
  %4 = call noundef i32 @_Z11log2i_exactImTnNSt9enable_ifIXcvbsr3std11is_integralIT_EE5valueEiE4typeELi0EEiS1_(i64 noundef %3)
  ret i32 %4
}

; Function Attrs: mustprogress nounwind uwtable
define linkonce_odr hidden noundef i64 @_ZN9HugePages30default_explicit_hugepage_sizeEv() #1 comdat align 2 {
  %1 = call noundef i64 @_ZNK23ExplicitHugePageSupport21default_hugepage_sizeEv(ptr noundef nonnull align 8 dereferenceable(25) @_ZN9HugePages26_explicit_hugepage_supportE)
  ret i64 %1
}

; Function Attrs: mustprogress nounwind uwtable
define linkonce_odr hidden noundef i64 @_ZN6OSInfo12vm_page_sizeEv() #1 comdat align 2 {
  %1 = load i64, ptr @_ZN6OSInfo13_vm_page_sizeE, align 8
  ret i64 %1
}

; Function Attrs: mustprogress nounwind uwtable
define linkonce_odr hidden noundef ptr @_Z24exact_unit_for_byte_sizem(i64 noundef %0) #1 comdat {
  %2 = alloca ptr, align 8
  %3 = alloca i64, align 8
  store i64 %0, ptr %3, align 8
  %4 = load i64, ptr %3, align 8
  %5 = icmp uge i64 %4, 1073741824
  br i1 %5, label %6, label %11

6:                                                ; preds = %1
  %7 = load i64, ptr %3, align 8
  %8 = urem i64 %7, 1073741824
  %9 = icmp eq i64 %8, 0
  br i1 %9, label %10, label %11

10:                                               ; preds = %6
  store ptr @.str.343, ptr %2, align 8
  br label %28

11:                                               ; preds = %6, %1
  %12 = load i64, ptr %3, align 8
  %13 = icmp uge i64 %12, 1048576
  br i1 %13, label %14, label %19

14:                                               ; preds = %11
  %15 = load i64, ptr %3, align 8
  %16 = urem i64 %15, 1048576
  %17 = icmp eq i64 %16, 0
  br i1 %17, label %18, label %19

18:                                               ; preds = %14
  store ptr @.str.344, ptr %2, align 8
  br label %28

19:                                               ; preds = %14, %11
  %20 = load i64, ptr %3, align 8
  %21 = icmp uge i64 %20, 1024
  br i1 %21, label %22, label %27

22:                                               ; preds = %19
  %23 = load i64, ptr %3, align 8
  %24 = urem i64 %23, 1024
  %25 = icmp eq i64 %24, 0
  br i1 %25, label %26, label %27

26:                                               ; preds = %22
  store ptr @.str.345, ptr %2, align 8
  br label %28

27:                                               ; preds = %22, %19
  store ptr @.str.346, ptr %2, align 8
  br label %28

28:                                               ; preds = %27, %26, %18, %10
  %29 = load ptr, ptr %2, align 8
  ret ptr %29
}

; Function Attrs: mustprogress nounwind uwtable
define linkonce_odr hidden noundef i64 @_Z23byte_size_in_exact_unitm(i64 noundef %0) #1 comdat {
  %2 = alloca i64, align 8
  %3 = alloca i64, align 8
  store i64 %0, ptr %3, align 8
  %4 = load i64, ptr %3, align 8
  %5 = icmp uge i64 %4, 1073741824
  br i1 %5, label %6, label %13

6:                                                ; preds = %1
  %7 = load i64, ptr %3, align 8
  %8 = urem i64 %7, 1073741824
  %9 = icmp eq i64 %8, 0
  br i1 %9, label %10, label %13

10:                                               ; preds = %6
  %11 = load i64, ptr %3, align 8
  %12 = udiv i64 %11, 1073741824
  store i64 %12, ptr %2, align 8
  br label %35

13:                                               ; preds = %6, %1
  %14 = load i64, ptr %3, align 8
  %15 = icmp uge i64 %14, 1048576
  br i1 %15, label %16, label %23

16:                                               ; preds = %13
  %17 = load i64, ptr %3, align 8
  %18 = urem i64 %17, 1048576
  %19 = icmp eq i64 %18, 0
  br i1 %19, label %20, label %23

20:                                               ; preds = %16
  %21 = load i64, ptr %3, align 8
  %22 = udiv i64 %21, 1048576
  store i64 %22, ptr %2, align 8
  br label %35

23:                                               ; preds = %16, %13
  %24 = load i64, ptr %3, align 8
  %25 = icmp uge i64 %24, 1024
  br i1 %25, label %26, label %33

26:                                               ; preds = %23
  %27 = load i64, ptr %3, align 8
  %28 = urem i64 %27, 1024
  %29 = icmp eq i64 %28, 0
  br i1 %29, label %30, label %33

30:                                               ; preds = %26
  %31 = load i64, ptr %3, align 8
  %32 = udiv i64 %31, 1024
  store i64 %32, ptr %2, align 8
  br label %35

33:                                               ; preds = %26, %23
  %34 = load i64, ptr %3, align 8
  store i64 %34, ptr %2, align 8
  br label %35

35:                                               ; preds = %33, %30, %20, %10
  %36 = load i64, ptr %2, align 8
  ret i64 %36
}

; Function Attrs: mustprogress nounwind uwtable
define linkonce_odr hidden noundef i64 @_Z3p2iPVKv(ptr noundef %0) #1 comdat {
  %2 = alloca ptr, align 8
  store ptr %0, ptr %2, align 8
  %3 = load ptr, ptr %2, align 8
  %4 = ptrtoint ptr %3 to i64
  ret i64 %4
}

; Function Attrs: mustprogress nounwind uwtable
define linkonce_odr hidden noundef zeroext i1 @_ZN7LogImplILN6LogTag4typeE108ELS1_0ELS1_0ELS1_0ELS1_0ELS1_0EE8is_levelEN8LogLevel4typeE(i32 noundef %0) #1 comdat align 2 {
  %2 = alloca i32, align 4
  store i32 %0, ptr %2, align 4
  %3 = call noundef nonnull align 8 dereferenceable(112) ptr @_ZN16LogTagSetMappingILN6LogTag4typeE108ELS1_0ELS1_0ELS1_0ELS1_0ELS1_0EE6tagsetEv()
  %4 = load i32, ptr %2, align 4
  %5 = call noundef zeroext i1 @_ZNK9LogTagSet8is_levelEN8LogLevel4typeE(ptr noundef nonnull align 8 dereferenceable(112) %3, i32 noundef %4)
  ret i1 %5
}

; Function Attrs: mustprogress nounwind uwtable
define internal void @_ZL29log_on_commit_special_failurePcmmi(ptr noundef %0, i64 noundef %1, i64 noundef %2, i32 noundef %3) #1 {
  %5 = alloca ptr, align 8
  %6 = alloca i64, align 8
  %7 = alloca i64, align 8
  %8 = alloca i32, align 4
  store ptr %0, ptr %5, align 8
  store i64 %1, ptr %6, align 8
  store i64 %2, ptr %7, align 8
  store i32 %3, ptr %8, align 4
  %9 = call noundef zeroext i1 @_ZN7LogImplILN6LogTag4typeE108ELS1_0ELS1_0ELS1_0ELS1_0ELS1_0EE8is_levelEN8LogLevel4typeE(i32 noundef 3)
  br i1 %9, label %11, label %10

10:                                               ; preds = %4
  br label %23

11:                                               ; preds = %4
  %12 = load ptr, ptr %5, align 8
  %13 = call noundef i64 @_Z3p2iPVKv(ptr noundef %12)
  %14 = load i64, ptr %6, align 8
  %15 = call noundef i64 @_Z23byte_size_in_exact_unitm(i64 noundef %14)
  %16 = load i64, ptr %6, align 8
  %17 = call noundef ptr @_Z24exact_unit_for_byte_sizem(i64 noundef %16)
  %18 = load i64, ptr %7, align 8
  %19 = call noundef i64 @_Z23byte_size_in_exact_unitm(i64 noundef %18)
  %20 = load i64, ptr %7, align 8
  %21 = call noundef ptr @_Z24exact_unit_for_byte_sizem(i64 noundef %20)
  %22 = load i32, ptr %8, align 4
  call void (ptr, ...) @_ZN7LogImplILN6LogTag4typeE108ELS1_0ELS1_0ELS1_0ELS1_0ELS1_0EE5writeILN8LogLevel4typeE3EEEvPKcz(ptr noundef @.str.359, i64 noundef %13, i64 noundef %15, ptr noundef %17, i64 noundef %19, ptr noundef %21, i32 noundef %22)
  br label %23

23:                                               ; preds = %11, %10
  ret void
}

; Function Attrs: mustprogress nounwind uwtable
define internal noundef i32 @_ZL24hugetlbfs_page_size_flagm(i64 noundef %0) #1 {
  %2 = alloca i32, align 4
  %3 = alloca i64, align 8
  store i64 %0, ptr %3, align 8
  %4 = load i64, ptr %3, align 8
  %5 = call noundef i64 @_ZN9HugePages30default_explicit_hugepage_sizeEv()
  %6 = icmp ne i64 %4, %5
  br i1 %6, label %7, label %11

7:                                                ; preds = %1
  %8 = load i64, ptr %3, align 8
  %9 = call noundef i32 @_Z10exact_log2l(i64 noundef %8)
  %10 = shl i32 %9, 26
  store i32 %10, ptr %2, align 4
  br label %12

11:                                               ; preds = %1
  store i32 0, ptr %2, align 4
  br label %12

12:                                               ; preds = %11, %7
  %13 = load i32, ptr %2, align 4
  ret i32 %13
}

; Function Attrs: mustprogress nounwind uwtable
define linkonce_odr hidden noundef i64 @_ZN2os12vm_page_sizeEv() #1 comdat align 2 {
  %1 = call noundef i64 @_ZN6OSInfo12vm_page_sizeEv()
  ret i64 %1
}

; Function Attrs: mustprogress nounwind uwtable
define internal noundef zeroext i1 @_ZL21commit_memory_specialmmPcb(i64 noundef %0, i64 noundef %1, ptr noundef %2, i1 noundef zeroext %3) #1 {
  %5 = alloca i1, align 1
  %6 = alloca i64, align 8
  %7 = alloca i64, align 8
  %8 = alloca ptr, align 8
  %9 = alloca i8, align 1
  %10 = alloca i32, align 4
  %11 = alloca i32, align 4
  %12 = alloca ptr, align 8
  store i64 %0, ptr %6, align 8
  store i64 %1, ptr %7, align 8
  store ptr %2, ptr %8, align 8
  %13 = zext i1 %3 to i8
  store i8 %13, ptr %9, align 1
  %14 = load i8, ptr %9, align 1
  %15 = trunc i8 %14 to i1
  %16 = select i1 %15, i32 7, i32 3
  store i32 %16, ptr %10, align 4
  store i32 50, ptr %11, align 4
  %17 = load i64, ptr %7, align 8
  %18 = call noundef i64 @_ZN2os12vm_page_sizeEv()
  %19 = icmp ugt i64 %17, %18
  br i1 %19, label %20, label %26

20:                                               ; preds = %4
  %21 = load i64, ptr %7, align 8
  %22 = call noundef i32 @_ZL24hugetlbfs_page_size_flagm(i64 noundef %21)
  %23 = or i32 262144, %22
  %24 = load i32, ptr %11, align 4
  %25 = or i32 %24, %23
  store i32 %25, ptr %11, align 4
  br label %26

26:                                               ; preds = %20, %4
  %27 = load ptr, ptr %8, align 8
  %28 = load i64, ptr %6, align 8
  %29 = load i32, ptr %10, align 4
  %30 = load i32, ptr %11, align 4
  %31 = call ptr @mmap64(ptr noundef %27, i64 noundef %28, i32 noundef %29, i32 noundef %30, i32 noundef -1, i64 noundef 0) #12
  store ptr %31, ptr %12, align 8
  %32 = load ptr, ptr %12, align 8
  %33 = icmp eq ptr %32, inttoptr (i64 -1 to ptr)
  br i1 %33, label %34, label %40

34:                                               ; preds = %26
  %35 = load ptr, ptr %8, align 8
  %36 = load i64, ptr %6, align 8
  %37 = load i64, ptr %7, align 8
  %38 = call ptr @__errno_location() #14
  %39 = load i32, ptr %38, align 4
  call void @_ZL29log_on_commit_special_failurePcmmi(ptr noundef %35, i64 noundef %36, i64 noundef %37, i32 noundef %39)
  store i1 false, ptr %5, align 1
  br label %55

40:                                               ; preds = %26
  %41 = call noundef zeroext i1 @_ZN7LogImplILN6LogTag4typeE108ELS1_0ELS1_0ELS1_0ELS1_0ELS1_0EE8is_levelEN8LogLevel4typeE(i32 noundef 2)
  br i1 %41, label %43, label %42

42:                                               ; preds = %40
  br label %54

43:                                               ; preds = %40
  %44 = load ptr, ptr %12, align 8
  %45 = call noundef i64 @_Z3p2iPVKv(ptr noundef %44)
  %46 = load i64, ptr %6, align 8
  %47 = call noundef i64 @_Z23byte_size_in_exact_unitm(i64 noundef %46)
  %48 = load i64, ptr %6, align 8
  %49 = call noundef ptr @_Z24exact_unit_for_byte_sizem(i64 noundef %48)
  %50 = load i64, ptr %7, align 8
  %51 = call noundef i64 @_Z23byte_size_in_exact_unitm(i64 noundef %50)
  %52 = load i64, ptr %7, align 8
  %53 = call noundef ptr @_Z24exact_unit_for_byte_sizem(i64 noundef %52)
  call void (ptr, ...) @_ZN7LogImplILN6LogTag4typeE108ELS1_0ELS1_0ELS1_0ELS1_0ELS1_0EE5writeILN8LogLevel4typeE2EEEvPKcz(ptr noundef @.str.358, i64 noundef %45, i64 noundef %47, ptr noundef %49, i64 noundef %51, ptr noundef %53)
  br label %54

54:                                               ; preds = %43, %42
  store i1 true, ptr %5, align 1
  br label %55

55:                                               ; preds = %54, %34
  %56 = load i1, ptr %5, align 1
  ret i1 %56
}