; Function Attrs: mustprogress nounwind uwtable
define internal fastcc noundef zeroext i1 @_ZL21commit_memory_specialmmPcb(i64 noundef %0, i64 noundef %1, ptr noundef %2, i1 noundef zeroext %3) unnamed_addr #0 {
  %5 = select i1 %3, i32 7, i32 3
  %6 = load i64, ptr @_ZN6OSInfo13_vm_page_sizeE, align 8
  %7 = icmp ult i64 %6, %1
  br i1 %7, label %8, label %15

8:                                                ; preds = %4
  %9 = tail call noundef i64 @_ZNK23ExplicitHugePageSupport21default_hugepage_sizeEv(ptr noundef nonnull align 8 dereferenceable(25) @_ZN9HugePages26_explicit_hugepage_supportE) #26
  %.not.i = icmp eq i64 %9, %1
  %10 = tail call range(i64 0, 65) i64 @llvm.cttz.i64(i64 %1, i1 true)
  %11 = trunc nuw nsw i64 %10 to i32
  %12 = shl nuw i32 %11, 26
  %13 = or disjoint i32 %12, 262194
  %14 = select i1 %.not.i, i32 262194, i32 %13
  br label %15

15:                                               ; preds = %8, %4
  %.017 = phi i32 [ %14, %8 ], [ 50, %4 ]
  %16 = tail call ptr @mmap64(ptr noundef %2, i64 noundef %0, i32 noundef %5, i32 noundef %.017, i32 noundef -1, i64 noundef 0) #26
  %17 = icmp ne ptr %16, inttoptr (i64 -1 to ptr)
  br i1 %17, label %52, label %18

18:                                               ; preds = %15
  %19 = tail call ptr @__errno_location() #28
  %20 = load i32, ptr %19, align 4
  %21 = load volatile ptr, ptr getelementptr inbounds (i8, ptr @_ZN16LogTagSetMappingILN6LogTag4typeE108ELS1_0ELS1_0ELS1_0ELS1_0ELS1_0EE7_tagsetE, i64 64), align 8
  %.not.i20 = icmp eq ptr %21, null
  br i1 %.not.i20, label %_ZL29log_on_commit_special_failurePcmmi.exit, label %22

22:                                               ; preds = %18
  %23 = ptrtoint ptr %2 to i64
  %24 = icmp ugt i64 %0, 1073741823
  %25 = and i64 %0, 1073741823
  %26 = icmp eq i64 %25, 0
  %or.cond.i.i = and i1 %24, %26
  br i1 %or.cond.i.i, label %_Z23byte_size_in_exact_unitm.exit.i, label %27

27:                                               ; preds = %22
  %28 = icmp ugt i64 %0, 1048575
  %29 = and i64 %0, 1048575
  %30 = icmp eq i64 %29, 0
  %or.cond14.i.i = and i1 %28, %30
  br i1 %or.cond14.i.i, label %.thread.i, label %33

.thread.i:                                        ; preds = %27
  %31 = lshr exact i64 %0, 20
  br label %_Z24exact_unit_for_byte_sizem.exit.i

_Z23byte_size_in_exact_unitm.exit.i:              ; preds = %22
  %32 = lshr exact i64 %0, 30
  br label %_Z24exact_unit_for_byte_sizem.exit.i

33:                                               ; preds = %27
  %34 = icmp ugt i64 %0, 1023
  %35 = and i64 %0, 1023
  %36 = icmp eq i64 %35, 0
  %or.cond16.i.i = and i1 %34, %36
  %37 = lshr exact i64 %0, 10
  %spec.select.i.i = select i1 %or.cond16.i.i, i64 %37, i64 %0
  %spec.select.i6.i = select i1 %or.cond16.i.i, ptr @.str.345, ptr @.str.346
  br label %_Z24exact_unit_for_byte_sizem.exit.i

_Z24exact_unit_for_byte_sizem.exit.i:             ; preds = %33, %_Z23byte_size_in_exact_unitm.exit.i, %.thread.i
  %.0.i22.i = phi i64 [ %32, %_Z23byte_size_in_exact_unitm.exit.i ], [ %spec.select.i.i, %33 ], [ %31, %.thread.i ]
  %.0.i7.i = phi ptr [ @.str.343, %_Z23byte_size_in_exact_unitm.exit.i ], [ %spec.select.i6.i, %33 ], [ @.str.344, %.thread.i ]
  %38 = icmp ugt i64 %1, 1073741823
  %39 = and i64 %1, 1073741823
  %40 = icmp eq i64 %39, 0
  %or.cond.i8.i = and i1 %38, %40
  br i1 %or.cond.i8.i, label %_Z23byte_size_in_exact_unitm.exit13.i, label %41

41:                                               ; preds = %_Z24exact_unit_for_byte_sizem.exit.i
  %42 = icmp ugt i64 %1, 1048575
  %43 = and i64 %1, 1048575
  %44 = icmp eq i64 %43, 0
  %or.cond14.i9.i = and i1 %42, %44
  br i1 %or.cond14.i9.i, label %.thread27.i, label %47

.thread27.i:                                      ; preds = %41
  %45 = lshr exact i64 %1, 20
  br label %_Z24exact_unit_for_byte_sizem.exit19.i

_Z23byte_size_in_exact_unitm.exit13.i:            ; preds = %_Z24exact_unit_for_byte_sizem.exit.i
  %46 = lshr exact i64 %1, 30
  br label %_Z24exact_unit_for_byte_sizem.exit19.i

47:                                               ; preds = %41
  %48 = icmp ugt i64 %1, 1023
  %49 = and i64 %1, 1023
  %50 = icmp eq i64 %49, 0
  %or.cond16.i10.i = and i1 %48, %50
  %51 = lshr exact i64 %1, 10
  %spec.select.i11.i = select i1 %or.cond16.i10.i, i64 %51, i64 %1
  %spec.select.i17.i = select i1 %or.cond16.i10.i, ptr @.str.345, ptr @.str.346
  br label %_Z24exact_unit_for_byte_sizem.exit19.i

_Z24exact_unit_for_byte_sizem.exit19.i:           ; preds = %47, %_Z23byte_size_in_exact_unitm.exit13.i, %.thread27.i
  %.0.i1225.i = phi i64 [ %46, %_Z23byte_size_in_exact_unitm.exit13.i ], [ %spec.select.i11.i, %47 ], [ %45, %.thread27.i ]
  %.0.i18.i = phi ptr [ @.str.343, %_Z23byte_size_in_exact_unitm.exit13.i ], [ %spec.select.i17.i, %47 ], [ @.str.344, %.thread27.i ]
  tail call void (ptr, ...) @_ZN7LogImplILN6LogTag4typeE108ELS1_0ELS1_0ELS1_0ELS1_0ELS1_0EE5writeILN8LogLevel4typeE3EEEvPKcz(ptr noundef nonnull @.str.359, i64 noundef %23, i64 noundef %.0.i22.i, ptr noundef nonnull %.0.i7.i, i64 noundef %.0.i1225.i, ptr noundef nonnull %.0.i18.i, i32 noundef %20)
  br label %_ZL29log_on_commit_special_failurePcmmi.exit

52:                                               ; preds = %15
  %53 = load volatile ptr, ptr getelementptr inbounds (i8, ptr @_ZN16LogTagSetMappingILN6LogTag4typeE108ELS1_0ELS1_0ELS1_0ELS1_0ELS1_0EE7_tagsetE, i64 56), align 8
  %.not = icmp eq ptr %53, null
  br i1 %.not, label %_ZL29log_on_commit_special_failurePcmmi.exit, label %54

54:                                               ; preds = %52
  %55 = ptrtoint ptr %16 to i64
  %56 = icmp ugt i64 %0, 1073741823
  %57 = and i64 %0, 1073741823
  %58 = icmp eq i64 %57, 0
  %or.cond.i = and i1 %56, %58
  br i1 %or.cond.i, label %_Z23byte_size_in_exact_unitm.exit, label %59

59:                                               ; preds = %54
  %60 = icmp ugt i64 %0, 1048575
  %61 = and i64 %0, 1048575
  %62 = icmp eq i64 %61, 0
  %or.cond14.i = and i1 %60, %62
  br i1 %or.cond14.i, label %.thread, label %65

.thread:                                          ; preds = %59
  %63 = lshr exact i64 %0, 20
  br label %_Z24exact_unit_for_byte_sizem.exit

_Z23byte_size_in_exact_unitm.exit:                ; preds = %54
  %64 = lshr exact i64 %0, 30
  br label %_Z24exact_unit_for_byte_sizem.exit

65:                                               ; preds = %59
  %66 = icmp ugt i64 %0, 1023
  %67 = and i64 %0, 1023
  %68 = icmp eq i64 %67, 0
  %or.cond16.i = and i1 %66, %68
  %69 = lshr exact i64 %0, 10
  %spec.select.i = select i1 %or.cond16.i, i64 %69, i64 %0
  %70 = icmp ugt i64 %0, 1023
  %71 = and i64 %0, 1023
  %72 = icmp eq i64 %71, 0
  %or.cond11.i = and i1 %70, %72
  %spec.select.i23 = select i1 %or.cond11.i, ptr @.str.345, ptr @.str.346
  br label %_Z24exact_unit_for_byte_sizem.exit

_Z24exact_unit_for_byte_sizem.exit:               ; preds = %.thread, %_Z23byte_size_in_exact_unitm.exit, %65
  %.0.i2139 = phi i64 [ %64, %_Z23byte_size_in_exact_unitm.exit ], [ %spec.select.i, %65 ], [ %63, %.thread ]
  %.0.i24 = phi ptr [ @.str.343, %_Z23byte_size_in_exact_unitm.exit ], [ %spec.select.i23, %65 ], [ @.str.344, %.thread ]
  %73 = icmp ugt i64 %1, 1073741823
  %74 = and i64 %1, 1073741823
  %75 = icmp eq i64 %74, 0
  %or.cond.i25 = and i1 %73, %75
  br i1 %or.cond.i25, label %_Z23byte_size_in_exact_unitm.exit30, label %76

76:                                               ; preds = %_Z24exact_unit_for_byte_sizem.exit
  %77 = icmp ugt i64 %1, 1048575
  %78 = and i64 %1, 1048575
  %79 = icmp eq i64 %78, 0
  %or.cond14.i26 = and i1 %77, %79
  br i1 %or.cond14.i26, label %.thread44, label %82

.thread44:                                        ; preds = %76
  %80 = lshr exact i64 %1, 20
  br label %_Z24exact_unit_for_byte_sizem.exit36

_Z23byte_size_in_exact_unitm.exit30:              ; preds = %_Z24exact_unit_for_byte_sizem.exit
  %81 = lshr exact i64 %1, 30
  br label %_Z24exact_unit_for_byte_sizem.exit36

82:                                               ; preds = %76
  %83 = icmp ugt i64 %1, 1023
  %84 = and i64 %1, 1023
  %85 = icmp eq i64 %84, 0
  %or.cond16.i27 = and i1 %83, %85
  %86 = lshr exact i64 %1, 10
  %spec.select.i28 = select i1 %or.cond16.i27, i64 %86, i64 %1
  %87 = icmp ugt i64 %1, 1023
  %88 = and i64 %1, 1023
  %89 = icmp eq i64 %88, 0
  %or.cond11.i33 = and i1 %87, %89
  %spec.select.i34 = select i1 %or.cond11.i33, ptr @.str.345, ptr @.str.346
  br label %_Z24exact_unit_for_byte_sizem.exit36

_Z24exact_unit_for_byte_sizem.exit36:             ; preds = %.thread44, %_Z23byte_size_in_exact_unitm.exit30, %82
  %.0.i2942 = phi i64 [ %81, %_Z23byte_size_in_exact_unitm.exit30 ], [ %spec.select.i28, %82 ], [ %80, %.thread44 ]
  %.0.i35 = phi ptr [ @.str.343, %_Z23byte_size_in_exact_unitm.exit30 ], [ %spec.select.i34, %82 ], [ @.str.344, %.thread44 ]
  tail call void (ptr, ...) @_ZN7LogImplILN6LogTag4typeE108ELS1_0ELS1_0ELS1_0ELS1_0ELS1_0EE5writeILN8LogLevel4typeE2EEEvPKcz(ptr noundef nonnull @.str.358, i64 noundef %55, i64 noundef %.0.i2139, ptr noundef nonnull %.0.i24, i64 noundef %.0.i2942, ptr noundef nonnull %.0.i35)
  br label %_ZL29log_on_commit_special_failurePcmmi.exit

_ZL29log_on_commit_special_failurePcmmi.exit:     ; preds = %_Z24exact_unit_for_byte_sizem.exit19.i, %18, %_Z24exact_unit_for_byte_sizem.exit36, %52
  ret i1 %17
}